target datalayout = "e-m:e-p270:32:32-p271:32:32-p272:64:64-i64:64-i128:128-f80:128-n8:16:32:64-S128"
target triple = "x86_64-pc-linux-gnu"

%"class.tlog::Stream" = type { ptr, i32, %"class.std::__1::unique_ptr.207" }
%"class.std::__1::unique_ptr.207" = type { %"class.std::__1::__compressed_pair.208" }
%"class.std::__1::__compressed_pair.208" = type { %"struct.std::__1::__compressed_pair_elem.209" }
%"struct.std::__1::__compressed_pair_elem.209" = type { ptr }
%class.anon.903 = type { ptr }
%"class.std::__1::__function::__func.910" = type { %"class.std::__1::__function::__base.911", %"class.std::__1::__function::__alloc_func.912" }
%"class.std::__1::__function::__base.911" = type { ptr }
%"class.std::__1::__function::__alloc_func.912" = type { %"class.std::__1::__compressed_pair.913" }
%"class.std::__1::__compressed_pair.913" = type { %"struct.std::__1::__compressed_pair_elem.914" }
%"struct.std::__1::__compressed_pair_elem.914" = type { %class.anon.903 }

@_ZTISt13runtime_error = external constant ptr
@.str.198 = private unnamed_addr constant [23 x i8] c"Malformed IPC packet: \00", align 1

; Function Attrs: mustprogress nounwind uwtable
define linkonce_odr hidden noundef i64 @_ZNSt3__118__constexpr_strlenB8ne190000EPKc(ptr noundef %0) #1 comdat {
  %2 = alloca ptr, align 8
  store ptr %0, ptr %2, align 8
  %3 = load ptr, ptr %2, align 8
  %4 = call i64 @strlen(ptr noundef %3) #17
  ret i64 %4
}

; Function Attrs: mustprogress nounwind uwtable
define linkonce_odr hidden noundef nonnull align 8 dereferenceable(8) ptr @_ZNKSt3__122__compressed_pair_elemIPNS_19basic_ostringstreamIcNS_11char_traitsIcEENS_9allocatorIcEEEELi0ELb0EE5__getB8ne190000Ev(ptr noundef nonnull align 8 dereferenceable(8) %0) #1 comdat align 2 {
  %2 = alloca ptr, align 8
  store ptr %0, ptr %2, align 8
  %3 = load ptr, ptr %2, align 8
  %4 = getelementptr inbounds %"struct.std::__1::__compressed_pair_elem.209", ptr %3, i32 0, i32 0
  ret ptr %4
}

; Function Attrs: mustprogress nounwind uwtable
define linkonce_odr hidden noundef i64 @_ZNSt3__111char_traitsIcE6lengthB8ne190000EPKc(ptr noundef %0) #1 comdat align 2 personality ptr @__gxx_personality_v0 {
  %2 = alloca ptr, align 8
  store ptr %0, ptr %2, align 8
  %3 = load ptr, ptr %2, align 8
  %4 = invoke noundef i64 @_ZNSt3__118__constexpr_strlenB8ne190000EPKc(ptr noundef %3)
          to label %5 unwind label %6

5:                                                ; preds = %1
  ret i64 %4

6:                                                ; preds = %1
  %7 = landingpad { ptr, i32 }
          catch ptr null
  %8 = extractvalue { ptr, i32 } %7, 0
  call void @__clang_call_terminate(ptr %8) #24
  unreachable
}

; Function Attrs: mustprogress nounwind uwtable
define linkonce_odr hidden noundef nonnull align 8 dereferenceable(8) ptr @_ZNKSt3__117__compressed_pairIPNS_19basic_ostringstreamIcNS_11char_traitsIcEENS_9allocatorIcEEEENS_14default_deleteIS6_EEE5firstB8ne190000Ev(ptr noundef nonnull align 8 dereferenceable(8) %0) #1 comdat align 2 {
  %2 = alloca ptr, align 8
  store ptr %0, ptr %2, align 8
  %3 = load ptr, ptr %2, align 8
  %4 = call noundef nonnull align 8 dereferenceable(8) ptr @_ZNKSt3__122__compressed_pair_elemIPNS_19basic_ostringstreamIcNS_11char_traitsIcEENS_9allocatorIcEEEELi0ELb0EE5__getB8ne190000Ev(ptr noundef nonnull align 8 dereferenceable(8) %3) #17
  ret ptr %4
}

; Function Attrs: mustprogress uwtable
define linkonce_odr hidden noundef nonnull align 8 dereferenceable(8) ptr @_ZNSt3__1lsB8ne190000INS_11char_traitsIcEEEERNS_13basic_ostreamIcT_EES6_PKc(ptr noundef nonnull align 8 dereferenceable(8) %0, ptr noundef %1) #4 comdat {
  %3 = alloca ptr, align 8
  %4 = alloca ptr, align 8
  store ptr %0, ptr %3, align 8
  store ptr %1, ptr %4, align 8
  %5 = load ptr, ptr %3, align 8
  %6 = load ptr, ptr %4, align 8
  %7 = load ptr, ptr %4, align 8
  %8 = call noundef i64 @_ZNSt3__111char_traitsIcE6lengthB8ne190000EPKc(ptr noundef %7) #17
  %9 = call noundef nonnull align 8 dereferenceable(8) ptr @_ZNSt3__124__put_character_sequenceB8ne190000IcNS_11char_traitsIcEEEERNS_13basic_ostreamIT_T0_EES7_PKS4_m(ptr noundef nonnull align 8 dereferenceable(8) %5, ptr noundef %6, i64 noundef %8)
  ret ptr %9
}

; Function Attrs: mustprogress nounwind uwtable
define linkonce_odr hidden noundef nonnull align 8 dereferenceable(112) ptr @_ZNKSt3__110unique_ptrINS_19basic_ostringstreamIcNS_11char_traitsIcEENS_9allocatorIcEEEENS_14default_deleteIS6_EEEdeB8ne190000Ev(ptr noundef nonnull align 8 dereferenceable(8) %0) #1 comdat align 2 {
  %2 = alloca ptr, align 8
  store ptr %0, ptr %2, align 8
  %3 = load ptr, ptr %2, align 8
  %4 = getelementptr inbounds %"class.std::__1::unique_ptr.207", ptr %3, i32 0, i32 0
  %5 = call noundef nonnull align 8 dereferenceable(8) ptr @_ZNKSt3__117__compressed_pairIPNS_19basic_ostringstreamIcNS_11char_traitsIcEENS_9allocatorIcEEEENS_14default_deleteIS6_EEE5firstB8ne190000Ev(ptr noundef nonnull align 8 dereferenceable(8) %4) #17
  %6 = load ptr, ptr %5, align 8
  ret ptr %6
}

; Function Attrs: mustprogress uwtable
define linkonce_odr dso_local noundef nonnull align 8 dereferenceable(24) ptr @_ZN4tlog6StreamlsIPKcEERS0_RKT_(ptr noundef nonnull align 8 dereferenceable(24) %0, ptr noundef nonnull align 8 dereferenceable(8) %1) #4 comdat align 2 {
  %3 = alloca ptr, align 8
  %4 = alloca ptr, align 8
  store ptr %0, ptr %3, align 8
  store ptr %1, ptr %4, align 8
  %5 = load ptr, ptr %3, align 8
  %6 = getelementptr inbounds %"class.tlog::Stream", ptr %5, i32 0, i32 2
  %7 = call noundef nonnull align 8 dereferenceable(112) ptr @_ZNKSt3__110unique_ptrINS_19basic_ostringstreamIcNS_11char_traitsIcEENS_9allocatorIcEEEENS_14default_deleteIS6_EEEdeB8ne190000Ev(ptr noundef nonnull align 8 dereferenceable(8) %6)
  %8 = load ptr, ptr %4, align 8
  %9 = load ptr, ptr %8, align 8
  %10 = call noundef nonnull align 8 dereferenceable(8) ptr @_ZNSt3__1lsB8ne190000INS_11char_traitsIcEEEERNS_13basic_ostreamIcT_EES6_PKc(ptr noundef nonnull align 8 dereferenceable(8) %7, ptr noundef %9)
  ret ptr %5
}

; Function Attrs: mustprogress uwtable
define linkonce_odr dso_local noundef nonnull align 8 dereferenceable(24) ptr @_ZN4tlog6StreamlsIA23_cEERS0_RKT_(ptr noundef nonnull align 8 dereferenceable(24) %0, ptr noundef nonnull align 1 dereferenceable(23) %1) #4 comdat align 2 {
  %3 = alloca ptr, align 8
  %4 = alloca ptr, align 8
  store ptr %0, ptr %3, align 8
  store ptr %1, ptr %4, align 8
  %5 = load ptr, ptr %3, align 8
  %6 = getelementptr inbounds %"class.tlog::Stream", ptr %5, i32 0, i32 2
  %7 = call noundef nonnull align 8 dereferenceable(112) ptr @_ZNKSt3__110unique_ptrINS_19basic_ostringstreamIcNS_11char_traitsIcEENS_9allocatorIcEEEENS_14default_deleteIS6_EEEdeB8ne190000Ev(ptr noundef nonnull align 8 dereferenceable(8) %6)
  %8 = load ptr, ptr %4, align 8
  %9 = getelementptr inbounds [23 x i8], ptr %8, i64 0, i64 0
  %10 = call noundef nonnull align 8 dereferenceable(8) ptr @_ZNSt3__1lsB8ne190000INS_11char_traitsIcEEEERNS_13basic_ostreamIcT_EES6_PKc(ptr noundef nonnull align 8 dereferenceable(8) %7, ptr noundef %9)
  ret ptr %5
}

; Function Attrs: mustprogress uwtable
define internal void @"_ZZZN3tev8mainFuncERKNSt3__16vectorINS0_12basic_stringIcNS0_11char_traitsIcEENS0_9allocatorIcEEEENS5_IS7_EEEEENK3$_1clEvENKUlRKNS_9IpcPacketEE_clESF_"(ptr noundef nonnull align 8 dereferenceable(8) %0, ptr noundef nonnull align 8 dereferenceable(24) %1) #4 align 2 personality ptr @__gxx_personality_v0 {
  %3 = alloca ptr, align 8
  %4 = alloca ptr, align 8
  %5 = alloca ptr, align 8
  %6 = alloca i32, align 4
  %7 = alloca ptr, align 8
  %8 = alloca %"class.tlog::Stream", align 8
  %9 = alloca ptr, align 8
  store ptr %0, ptr %3, align 8
  store ptr %1, ptr %4, align 8
  %10 = load ptr, ptr %3, align 8
  %11 = load ptr, ptr %4, align 8
  %12 = getelementptr inbounds %class.anon.903, ptr %10, i32 0, i32 0
  %13 = load ptr, ptr %12, align 8
  invoke void @_ZN3tev15handleIpcPacketERKNS_9IpcPacketERKNSt3__110shared_ptrINS_22BackgroundImagesLoaderEEE(ptr noundef nonnull align 8 dereferenceable(24) %11, ptr noundef nonnull align 8 dereferenceable(16) %13)
          to label %14 unwind label %15

14:                                               ; preds = %2
  br label %36

15:                                               ; preds = %2
  %16 = landingpad { ptr, i32 }
          catch ptr @_ZTISt13runtime_error
  %17 = extractvalue { ptr, i32 } %16, 0
  store ptr %17, ptr %5, align 8
  %18 = extractvalue { ptr, i32 } %16, 1
  store i32 %18, ptr %6, align 4
  br label %19

19:                                               ; preds = %15
  %20 = load i32, ptr %6, align 4
  %21 = call i32 @llvm.eh.typeid.for(ptr @_ZTISt13runtime_error) #17
  %22 = icmp eq i32 %20, %21
  br i1 %22, label %23, label %47

23:                                               ; preds = %19
  %24 = load ptr, ptr %5, align 8
  %25 = call ptr @__cxa_begin_catch(ptr %24) #17
  store ptr %25, ptr %7, align 8
  invoke void @_ZN4tlog7warningEv(ptr dead_on_unwind writable sret(%"class.tlog::Stream") align 8 %8)
          to label %26 unwind label %37

26:                                               ; preds = %23
  %27 = invoke noundef nonnull align 8 dereferenceable(24) ptr @_ZN4tlog6StreamlsIA23_cEERS0_RKT_(ptr noundef nonnull align 8 dereferenceable(24) %8, ptr noundef nonnull align 1 dereferenceable(23) @.str.198)
          to label %28 unwind label %41

28:                                               ; preds = %26
  %29 = load ptr, ptr %7, align 8
  %30 = load ptr, ptr %29, align 8
  %31 = getelementptr inbounds ptr, ptr %30, i64 2
  %32 = load ptr, ptr %31, align 8
  %33 = call noundef ptr %32(ptr noundef nonnull align 8 dereferenceable(16) %29) #17
  store ptr %33, ptr %9, align 8
  %34 = invoke noundef nonnull align 8 dereferenceable(24) ptr @_ZN4tlog6StreamlsIPKcEERS0_RKT_(ptr noundef nonnull align 8 dereferenceable(24) %27, ptr noundef nonnull align 8 dereferenceable(8) %9)
          to label %35 unwind label %41

35:                                               ; preds = %28
  call void @_ZN4tlog6StreamD2Ev(ptr noundef nonnull align 8 dereferenceable(24) %8) #17
  call void @__cxa_end_catch()
  br label %36

36:                                               ; preds = %35, %14
  ret void

37:                                               ; preds = %23
  %38 = landingpad { ptr, i32 }
          cleanup
  %39 = extractvalue { ptr, i32 } %38, 0
  store ptr %39, ptr %5, align 8
  %40 = extractvalue { ptr, i32 } %38, 1
  store i32 %40, ptr %6, align 4
  br label %45

41:                                               ; preds = %28, %26
  %42 = landingpad { ptr, i32 }
          cleanup
  %43 = extractvalue { ptr, i32 } %42, 0
  store ptr %43, ptr %5, align 8
  %44 = extractvalue { ptr, i32 } %42, 1
  store i32 %44, ptr %6, align 4
  call void @_ZN4tlog6StreamD2Ev(ptr noundef nonnull align 8 dereferenceable(24) %8) #17
  br label %45

45:                                               ; preds = %41, %37
  invoke void @__cxa_end_catch()
          to label %46 unwind label %52

46:                                               ; preds = %45
  br label %47

47:                                               ; preds = %46, %19
  %48 = load ptr, ptr %5, align 8
  %49 = load i32, ptr %6, align 4
  %50 = insertvalue { ptr, i32 } poison, ptr %48, 0
  %51 = insertvalue { ptr, i32 } %50, i32 %49, 1
  resume { ptr, i32 } %51

52:                                               ; preds = %45
  %53 = landingpad { ptr, i32 }
          catch ptr null
  %54 = extractvalue { ptr, i32 } %53, 0
  call void @__clang_call_terminate(ptr %54) #24
  unreachable
}

; Function Attrs: mustprogress uwtable
define internal void @"_ZNSt3__18__invokeB8ne190000IRZZN3tev8mainFuncERKNS_6vectorINS_12basic_stringIcNS_11char_traitsIcEENS_9allocatorIcEEEENS6_IS8_EEEEENK3$_1clEvEUlRKNS1_9IpcPacketEE_JSG_EEEDTclclsr3stdE7declvalIT_EEspclsr3stdE7declvalIT0_EEEEOSJ_DpOSK_"(ptr noundef nonnull align 8 dereferenceable(8) %0, ptr noundef nonnull align 8 dereferenceable(24) %1) #4 {
  %3 = alloca ptr, align 8
  %4 = alloca ptr, align 8
  store ptr %0, ptr %3, align 8
  store ptr %1, ptr %4, align 8
  %5 = load ptr, ptr %3, align 8
  %6 = load ptr, ptr %4, align 8
  call void @"_ZZZN3tev8mainFuncERKNSt3__16vectorINS0_12basic_stringIcNS0_11char_traitsIcEENS0_9allocatorIcEEEENS5_IS7_EEEEENK3$_1clEvENKUlRKNS_9IpcPacketEE_clESF_"(ptr noundef nonnull align 8 dereferenceable(8) %5, ptr noundef nonnull align 8 dereferenceable(24) %6)
  ret void
}

; Function Attrs: mustprogress nounwind uwtable
define internal noundef nonnull align 8 dereferenceable(8) ptr @"_ZNSt3__122__compressed_pair_elemIZZN3tev8mainFuncERKNS_6vectorINS_12basic_stringIcNS_11char_traitsIcEENS_9allocatorIcEEEENS6_IS8_EEEEENK3$_1clEvEUlRKNS1_9IpcPacketEE_Li0ELb0EE5__getB8ne190000Ev"(ptr noundef nonnull align 8 dereferenceable(8) %0) #1 align 2 {
  %2 = alloca ptr, align 8
  store ptr %0, ptr %2, align 8
  %3 = load ptr, ptr %2, align 8
  %4 = getelementptr inbounds %"struct.std::__1::__compressed_pair_elem.914", ptr %3, i32 0, i32 0
  ret ptr %4
}

; Function Attrs: mustprogress uwtable
define internal void @"_ZNSt3__128__invoke_void_return_wrapperIvLb1EE6__callB8ne190000IJRZZN3tev8mainFuncERKNS_6vectorINS_12basic_stringIcNS_11char_traitsIcEENS_9allocatorIcEEEENS8_ISA_EEEEENK3$_1clEvEUlRKNS3_9IpcPacketEE_SI_EEEvDpOT_"(ptr noundef nonnull align 8 dereferenceable(8) %0, ptr noundef nonnull align 8 dereferenceable(24) %1) #4 align 2 {
  %3 = alloca ptr, align 8
  %4 = alloca ptr, align 8
  store ptr %0, ptr %3, align 8
  store ptr %1, ptr %4, align 8
  %5 = load ptr, ptr %3, align 8
  %6 = load ptr, ptr %4, align 8
  call void @"_ZNSt3__18__invokeB8ne190000IRZZN3tev8mainFuncERKNS_6vectorINS_12basic_stringIcNS_11char_traitsIcEENS_9allocatorIcEEEENS6_IS8_EEEEENK3$_1clEvEUlRKNS1_9IpcPacketEE_JSG_EEEDTclclsr3stdE7declvalIT_EEspclsr3stdE7declvalIT0_EEEEOSJ_DpOSK_"(ptr noundef nonnull align 8 dereferenceable(8) %5, ptr noundef nonnull align 8 dereferenceable(24) %6)
  ret void
}

; Function Attrs: mustprogress nounwind uwtable
define internal noundef nonnull align 8 dereferenceable(8) ptr @"_ZNSt3__117__compressed_pairIZZN3tev8mainFuncERKNS_6vectorINS_12basic_stringIcNS_11char_traitsIcEENS_9allocatorIcEEEENS6_IS8_EEEEENK3$_1clEvEUlRKNS1_9IpcPacketEE_NS6_ISH_EEE5firstB8ne190000Ev"(ptr noundef nonnull align 8 dereferenceable(8) %0) #1 align 2 {
  %2 = alloca ptr, align 8
  store ptr %0, ptr %2, align 8
  %3 = load ptr, ptr %2, align 8
  %4 = call noundef nonnull align 8 dereferenceable(8) ptr @"_ZNSt3__122__compressed_pair_elemIZZN3tev8mainFuncERKNS_6vectorINS_12basic_stringIcNS_11char_traitsIcEENS_9allocatorIcEEEENS6_IS8_EEEEENK3$_1clEvEUlRKNS1_9IpcPacketEE_Li0ELb0EE5__getB8ne190000Ev"(ptr noundef nonnull align 8 dereferenceable(8) %3) #17
  ret ptr %4
}

; Function Attrs: mustprogress uwtable
define internal void @"_ZNSt3__110__function12__alloc_funcIZZN3tev8mainFuncERKNS_6vectorINS_12basic_stringIcNS_11char_traitsIcEENS_9allocatorIcEEEENS7_IS9_EEEEENK3$_1clEvEUlRKNS2_9IpcPacketEE_NS7_ISI_EEFvSH_EEclB8ne190000ESH_"(ptr noundef nonnull align 8 dereferenceable(8) %0, ptr noundef nonnull align 8 dereferenceable(24) %1) #4 align 2 {
  %3 = alloca ptr, align 8
  %4 = alloca ptr, align 8
  store ptr %0, ptr %3, align 8
  store ptr %1, ptr %4, align 8
  %5 = load ptr, ptr %3, align 8
  %6 = getelementptr inbounds %"class.std::__1::__function::__alloc_func.912", ptr %5, i32 0, i32 0
  %7 = call noundef nonnull align 8 dereferenceable(8) ptr @"_ZNSt3__117__compressed_pairIZZN3tev8mainFuncERKNS_6vectorINS_12basic_stringIcNS_11char_traitsIcEENS_9allocatorIcEEEENS6_IS8_EEEEENK3$_1clEvEUlRKNS1_9IpcPacketEE_NS6_ISH_EEE5firstB8ne190000Ev"(ptr noundef nonnull align 8 dereferenceable(8) %6) #17
  %8 = load ptr, ptr %4, align 8
  call void @"_ZNSt3__128__invoke_void_return_wrapperIvLb1EE6__callB8ne190000IJRZZN3tev8mainFuncERKNS_6vectorINS_12basic_stringIcNS_11char_traitsIcEENS_9allocatorIcEEEENS8_ISA_EEEEENK3$_1clEvEUlRKNS3_9IpcPacketEE_SI_EEEvDpOT_"(ptr noundef nonnull align 8 dereferenceable(8) %7, ptr noundef nonnull align 8 dereferenceable(24) %8)
  ret void
}

; Function Attrs: mustprogress uwtable
define internal void @"_ZNSt3__110__function6__funcIZZN3tev8mainFuncERKNS_6vectorINS_12basic_stringIcNS_11char_traitsIcEENS_9allocatorIcEEEENS7_IS9_EEEEENK3$_1clEvEUlRKNS2_9IpcPacketEE_NS7_ISI_EEFvSH_EEclESH_"(ptr noundef nonnull align 8 dereferenceable(16) %0, ptr noundef nonnull align 8 dereferenceable(24) %1) unnamed_addr #4 align 2 {
  %3 = alloca ptr, align 8
  %4 = alloca ptr, align 8
  store ptr %0, ptr %3, align 8
  store ptr %1, ptr %4, align 8
  %5 = load ptr, ptr %3, align 8
  %6 = getelementptr inbounds %"class.std::__1::__function::__func.910", ptr %5, i32 0, i32 1
  %7 = load ptr, ptr %4, align 8
  call void @"_ZNSt3__110__function12__alloc_funcIZZN3tev8mainFuncERKNS_6vectorINS_12basic_stringIcNS_11char_traitsIcEENS_9allocatorIcEEEENS7_IS9_EEEEENK3$_1clEvEUlRKNS2_9IpcPacketEE_NS7_ISI_EEFvSH_EEclB8ne190000ESH_"(ptr noundef nonnull align 8 dereferenceable(8) %6, ptr noundef nonnull align 8 dereferenceable(24) %7)
  ret void
}