; Function Attrs: mustprogress uwtable
define internal void @"_ZNSt3__110__function6__funcIZZN3tev8mainFuncERKNS_6vectorINS_12basic_stringIcNS_11char_traitsIcEENS_9allocatorIcEEEENS7_IS9_EEEEENK3$_1clEvEUlRKNS2_9IpcPacketEE_NS7_ISI_EEFvSH_EEclESH_"(ptr nocapture noundef nonnull readonly align 8 dereferenceable(16) %0, ptr noundef nonnull align 8 dereferenceable(24) %1) unnamed_addr #3 align 2 personality ptr @__gxx_personality_v0 {
  %3 = alloca %"class.tlog::Stream", align 8
  %4 = getelementptr inbounds i8, ptr %0, i64 8
  %.val = load ptr, ptr %4, align 8
  call void @llvm.lifetime.start.p0(i64 24, ptr nonnull %3)
  invoke void @_ZN3tev15handleIpcPacketERKNS_9IpcPacketERKNSt3__110shared_ptrINS_22BackgroundImagesLoaderEEE(ptr noundef nonnull align 8 dereferenceable(24) %1, ptr noundef nonnull align 8 dereferenceable(16) %.val)
          to label %"_ZNSt3__110__function12__alloc_funcIZZN3tev8mainFuncERKNS_6vectorINS_12basic_stringIcNS_11char_traitsIcEENS_9allocatorIcEEEENS7_IS9_EEEEENK3$_1clEvEUlRKNS2_9IpcPacketEE_NS7_ISI_EEFvSH_EEclB8ne190000ESH_.exit" unwind label %5

5:                                                ; preds = %2
  %6 = landingpad { ptr, i32 }
          catch ptr @_ZTISt13runtime_error
  %7 = extractvalue { ptr, i32 } %6, 1
  %8 = tail call i32 @llvm.eh.typeid.for(ptr nonnull @_ZTISt13runtime_error) #28
  %9 = icmp eq i32 %7, %8
  br i1 %9, label %10, label %29

10:                                               ; preds = %5
  %11 = extractvalue { ptr, i32 } %6, 0
  %12 = tail call ptr @__cxa_begin_catch(ptr %11) #28
  invoke void @_ZN4tlog7warningEv(ptr dead_on_unwind nonnull writable sret(%"class.tlog::Stream") align 8 %3)
          to label %13 unwind label %24

13:                                               ; preds = %10
  %14 = getelementptr inbounds i8, ptr %3, i64 16
  %15 = load ptr, ptr %14, align 8
  %16 = invoke noundef nonnull align 8 dereferenceable(8) ptr @_ZNSt3__124__put_character_sequenceB8ne190000IcNS_11char_traitsIcEEEERNS_13basic_ostreamIT_T0_EES7_PKS4_m(ptr noundef nonnull align 8 dereferenceable(8) %15, ptr noundef nonnull @.str.198, i64 noundef 22)
          to label %_ZN4tlog6StreamlsIA23_cEERS0_RKT_.exit.i.i.i.i unwind label %26

_ZN4tlog6StreamlsIA23_cEERS0_RKT_.exit.i.i.i.i:   ; preds = %13
  %17 = load ptr, ptr %12, align 8
  %18 = getelementptr inbounds i8, ptr %17, i64 16
  %19 = load ptr, ptr %18, align 8
  %20 = call noundef ptr %19(ptr noundef nonnull align 8 dereferenceable(16) %12) #28
  %21 = load ptr, ptr %14, align 8
  %22 = call noundef i64 @strlen(ptr noundef nonnull dereferenceable(1) %20) #28
  %23 = invoke noundef nonnull align 8 dereferenceable(8) ptr @_ZNSt3__124__put_character_sequenceB8ne190000IcNS_11char_traitsIcEEEERNS_13basic_ostreamIT_T0_EES7_PKS4_m(ptr noundef nonnull align 8 dereferenceable(8) %21, ptr noundef %20, i64 noundef %22)
          to label %_ZN4tlog6StreamlsIPKcEERS0_RKT_.exit.i.i.i.i unwind label %26

_ZN4tlog6StreamlsIPKcEERS0_RKT_.exit.i.i.i.i:     ; preds = %_ZN4tlog6StreamlsIA23_cEERS0_RKT_.exit.i.i.i.i
  call void @_ZN4tlog6StreamD2Ev(ptr noundef nonnull align 8 dereferenceable(24) %3) #28
  call void @__cxa_end_catch()
  br label %"_ZNSt3__110__function12__alloc_funcIZZN3tev8mainFuncERKNS_6vectorINS_12basic_stringIcNS_11char_traitsIcEENS_9allocatorIcEEEENS7_IS9_EEEEENK3$_1clEvEUlRKNS2_9IpcPacketEE_NS7_ISI_EEFvSH_EEclB8ne190000ESH_.exit"

24:                                               ; preds = %10
  %25 = landingpad { ptr, i32 }
          cleanup
  br label %28

26:                                               ; preds = %_ZN4tlog6StreamlsIA23_cEERS0_RKT_.exit.i.i.i.i, %13
  %27 = landingpad { ptr, i32 }
          cleanup
  call void @_ZN4tlog6StreamD2Ev(ptr noundef nonnull align 8 dereferenceable(24) %3) #28
  br label %28

28:                                               ; preds = %26, %24
  %.pn.i.i.i.i = phi { ptr, i32 } [ %27, %26 ], [ %25, %24 ]
  invoke void @__cxa_end_catch()
          to label %29 unwind label %30

29:                                               ; preds = %28, %5
  %.merged.i.i.i.i = phi { ptr, i32 } [ %.pn.i.i.i.i, %28 ], [ %6, %5 ]
  resume { ptr, i32 } %.merged.i.i.i.i

30:                                               ; preds = %28
  %31 = landingpad { ptr, i32 }
          catch ptr null
  %32 = extractvalue { ptr, i32 } %31, 0
  call void @__clang_call_terminate(ptr %32) #32
  unreachable

"_ZNSt3__110__function12__alloc_funcIZZN3tev8mainFuncERKNS_6vectorINS_12basic_stringIcNS_11char_traitsIcEENS_9allocatorIcEEEENS7_IS9_EEEEENK3$_1clEvEUlRKNS2_9IpcPacketEE_NS7_ISI_EEFvSH_EEclB8ne190000ESH_.exit": ; preds = %2, %_ZN4tlog6StreamlsIPKcEERS0_RKT_.exit.i.i.i.i
  call void @llvm.lifetime.end.p0(i64 24, ptr nonnull %3)
  ret void
}